target datalayout = "e-m:e-p270:32:32-p271:32:32-p272:64:64-i64:64-i128:128-f80:128-n8:16:32:64-S128"
target triple = "x86_64-pc-linux-gnu"

@_ZN3tbb6detail2r1L18deallocate_handlerE = internal global ptr null, align 8

; Function Attrs: mustprogress sspstrong uwtable
define void @_ZN3tbb6detail2r117deallocate_memoryEPv(ptr noundef %0) #0 {
  %2 = alloca ptr, align 8
  store ptr %0, ptr %2, align 8, !tbaa !9
  %3 = load ptr, ptr %2, align 8, !tbaa !9
  %4 = icmp ne ptr %3, null
  br i1 %4, label %5, label %8

5:                                                ; preds = %1
  %6 = load ptr, ptr @_ZN3tbb6detail2r1L18deallocate_handlerE, align 8, !tbaa !9
  %7 = load ptr, ptr %2, align 8, !tbaa !9
  call void %6(ptr noundef %7)
  br label %8

8:                                                ; preds = %5, %1
  ret void
}