; Function Attrs: mustprogress sspstrong uwtable
define void @_ZN3tbb6detail2r117deallocate_memoryEPv(ptr noundef %0) local_unnamed_addr #0 {
  %.not = icmp eq ptr %0, null
  br i1 %.not, label %4, label %2

2:                                                ; preds = %1
  %3 = load ptr, ptr @_ZN3tbb6detail2r1L18deallocate_handlerE, align 8, !tbaa !3
  tail call void %3(ptr noundef nonnull %0)
  br label %4

4:                                                ; preds = %2, %1
  ret void
}